target datalayout = "e-m:e-p270:32:32-p271:32:32-p272:64:64-i64:64-i128:128-f80:128-n8:16:32:64-S128"
target triple = "x86_64-pc-linux-gnu"

%struct.nameData = type { [64 x i8] }
%struct.ReplicationSlot = type { i8, i8, i32, i8, i8, i32, i32, %struct.ReplicationSlotPersistentData, %struct.LWLock, %struct.ConditionVariable, i32, i64, i64, i64, i64, i64 }
%struct.ReplicationSlotPersistentData = type { %struct.nameData, i32, i32, i32, i32, i64, i32, i64, i64, i8, %struct.nameData, i8, i8 }
%struct.LWLock = type { i16, %struct.pg_atomic_uint32, %struct.proclist_head }
%struct.pg_atomic_uint32 = type { i32 }
%struct.proclist_head = type { i32, i32 }
%struct.ConditionVariable = type { i8, %struct.proclist_head }

@.str.1 = private unnamed_addr constant [10 x i8] c"logical.c\00", align 1
@MyReplicationSlot = external global ptr, align 8
@__func__.LogicalConfirmReceivedLocation = private unnamed_addr constant [31 x i8] c"LogicalConfirmReceivedLocation\00", align 1
@.str.25 = private unnamed_addr constant [29 x i8] c"updated xmin: %u restart: %u\00", align 1

; Function Attrs: inlinehint nounwind uwtable
define internal i32 @tas(ptr noundef %0) #4 {
  %2 = alloca ptr, align 8
  %3 = alloca i8, align 1
  store ptr %0, ptr %2, align 8
  call void @llvm.lifetime.start.p0(i64 1, ptr %3) #10
  store i8 1, ptr %3, align 1
  %4 = load i8, ptr %3, align 1
  %5 = load ptr, ptr %2, align 8
  %6 = call i8 asm sideeffect "\09lock\09\09\09\0A\09xchgb\09$0,$1\09\0A", "=q,=*m,0,*m,~{memory},~{cc},~{dirflag},~{fpsr},~{flags}"(ptr elementtype(i8) %5, i8 %4, ptr elementtype(i8) %5) #10, !srcloc !9
  store i8 %6, ptr %3, align 1
  %7 = load i8, ptr %3, align 1
  %8 = zext i8 %7 to i32
  call void @llvm.lifetime.end.p0(i64 1, ptr %3) #10
  ret i32 %8
}

; Function Attrs: nounwind uwtable
define dso_local void @LogicalConfirmReceivedLocation(i64 noundef %0) #0 {
  %2 = alloca i64, align 8
  %3 = alloca i8, align 1
  %4 = alloca i8, align 1
  store i64 %0, ptr %2, align 8
  %5 = load ptr, ptr @MyReplicationSlot, align 8
  %6 = getelementptr inbounds nuw %struct.ReplicationSlot, ptr %5, i32 0, i32 11
  %7 = load i64, ptr %6, align 8
  %8 = icmp ne i64 %7, 0
  br i1 %8, label %14, label %9

9:                                                ; preds = %1
  %10 = load ptr, ptr @MyReplicationSlot, align 8
  %11 = getelementptr inbounds nuw %struct.ReplicationSlot, ptr %10, i32 0, i32 12
  %12 = load i64, ptr %11, align 8
  %13 = icmp ne i64 %12, 0
  br i1 %13, label %14, label %141

14:                                               ; preds = %9, %1
  call void @llvm.lifetime.start.p0(i64 1, ptr %3) #10
  store i8 0, ptr %3, align 1
  call void @llvm.lifetime.start.p0(i64 1, ptr %4) #10
  store i8 0, ptr %4, align 1
  %15 = load ptr, ptr @MyReplicationSlot, align 8
  %16 = getelementptr inbounds nuw %struct.ReplicationSlot, ptr %15, i32 0, i32 0
  %17 = call i32 @tas(ptr noundef %16)
  %18 = icmp ne i32 %17, 0
  br i1 %18, label %19, label %23

19:                                               ; preds = %14
  %20 = load ptr, ptr @MyReplicationSlot, align 8
  %21 = getelementptr inbounds nuw %struct.ReplicationSlot, ptr %20, i32 0, i32 0
  %22 = call i32 @s_lock(ptr noundef %21, ptr noundef @.str.1, i32 noundef 1829, ptr noundef @__func__.LogicalConfirmReceivedLocation)
  br label %24

23:                                               ; preds = %14
  br label %24

24:                                               ; preds = %23, %19
  %25 = load i64, ptr %2, align 8
  %26 = load ptr, ptr @MyReplicationSlot, align 8
  %27 = getelementptr inbounds nuw %struct.ReplicationSlot, ptr %26, i32 0, i32 7
  %28 = getelementptr inbounds nuw %struct.ReplicationSlotPersistentData, ptr %27, i32 0, i32 7
  store i64 %25, ptr %28, align 8
  %29 = load ptr, ptr @MyReplicationSlot, align 8
  %30 = getelementptr inbounds nuw %struct.ReplicationSlot, ptr %29, i32 0, i32 11
  %31 = load i64, ptr %30, align 8
  %32 = icmp ne i64 %31, 0
  br i1 %32, label %33, label %65

33:                                               ; preds = %24
  %34 = load ptr, ptr @MyReplicationSlot, align 8
  %35 = getelementptr inbounds nuw %struct.ReplicationSlot, ptr %34, i32 0, i32 11
  %36 = load i64, ptr %35, align 8
  %37 = load i64, ptr %2, align 8
  %38 = icmp ule i64 %36, %37
  br i1 %38, label %39, label %65

39:                                               ; preds = %33
  %40 = load ptr, ptr @MyReplicationSlot, align 8
  %41 = getelementptr inbounds nuw %struct.ReplicationSlot, ptr %40, i32 0, i32 10
  %42 = load i32, ptr %41, align 4
  %43 = icmp ne i32 %42, 0
  br i1 %43, label %44, label %64

44:                                               ; preds = %39
  %45 = load ptr, ptr @MyReplicationSlot, align 8
  %46 = getelementptr inbounds nuw %struct.ReplicationSlot, ptr %45, i32 0, i32 7
  %47 = getelementptr inbounds nuw %struct.ReplicationSlotPersistentData, ptr %46, i32 0, i32 4
  %48 = load i32, ptr %47, align 4
  %49 = load ptr, ptr @MyReplicationSlot, align 8
  %50 = getelementptr inbounds nuw %struct.ReplicationSlot, ptr %49, i32 0, i32 10
  %51 = load i32, ptr %50, align 4
  %52 = icmp ne i32 %48, %51
  br i1 %52, label %53, label %64

53:                                               ; preds = %44
  %54 = load ptr, ptr @MyReplicationSlot, align 8
  %55 = getelementptr inbounds nuw %struct.ReplicationSlot, ptr %54, i32 0, i32 10
  %56 = load i32, ptr %55, align 4
  %57 = load ptr, ptr @MyReplicationSlot, align 8
  %58 = getelementptr inbounds nuw %struct.ReplicationSlot, ptr %57, i32 0, i32 7
  %59 = getelementptr inbounds nuw %struct.ReplicationSlotPersistentData, ptr %58, i32 0, i32 4
  store i32 %56, ptr %59, align 4
  %60 = load ptr, ptr @MyReplicationSlot, align 8
  %61 = getelementptr inbounds nuw %struct.ReplicationSlot, ptr %60, i32 0, i32 10
  store i32 0, ptr %61, align 4
  %62 = load ptr, ptr @MyReplicationSlot, align 8
  %63 = getelementptr inbounds nuw %struct.ReplicationSlot, ptr %62, i32 0, i32 11
  store i64 0, ptr %63, align 8
  store i8 1, ptr %3, align 1
  br label %64

64:                                               ; preds = %53, %44, %39
  br label %65

65:                                               ; preds = %64, %33, %24
  %66 = load ptr, ptr @MyReplicationSlot, align 8
  %67 = getelementptr inbounds nuw %struct.ReplicationSlot, ptr %66, i32 0, i32 12
  %68 = load i64, ptr %67, align 8
  %69 = icmp ne i64 %68, 0
  br i1 %69, label %70, label %87

70:                                               ; preds = %65
  %71 = load ptr, ptr @MyReplicationSlot, align 8
  %72 = getelementptr inbounds nuw %struct.ReplicationSlot, ptr %71, i32 0, i32 12
  %73 = load i64, ptr %72, align 8
  %74 = load i64, ptr %2, align 8
  %75 = icmp ule i64 %73, %74
  br i1 %75, label %76, label %87

76:                                               ; preds = %70
  %77 = load ptr, ptr @MyReplicationSlot, align 8
  %78 = getelementptr inbounds nuw %struct.ReplicationSlot, ptr %77, i32 0, i32 13
  %79 = load i64, ptr %78, align 8
  %80 = load ptr, ptr @MyReplicationSlot, align 8
  %81 = getelementptr inbounds nuw %struct.ReplicationSlot, ptr %80, i32 0, i32 7
  %82 = getelementptr inbounds nuw %struct.ReplicationSlotPersistentData, ptr %81, i32 0, i32 5
  store i64 %79, ptr %82, align 8
  %83 = load ptr, ptr @MyReplicationSlot, align 8
  %84 = getelementptr inbounds nuw %struct.ReplicationSlot, ptr %83, i32 0, i32 13
  store i64 0, ptr %84, align 8
  %85 = load ptr, ptr @MyReplicationSlot, align 8
  %86 = getelementptr inbounds nuw %struct.ReplicationSlot, ptr %85, i32 0, i32 12
  store i64 0, ptr %86, align 8
  store i8 1, ptr %4, align 1
  br label %87

87:                                               ; preds = %76, %70, %65
  br label %88

88:                                               ; preds = %87
  call void asm sideeffect "", "~{memory},~{dirflag},~{fpsr},~{flags}"() #10, !srcloc !13
  %89 = load ptr, ptr @MyReplicationSlot, align 8
  %90 = getelementptr inbounds nuw %struct.ReplicationSlot, ptr %89, i32 0, i32 0
  store i8 0, ptr %90, align 8
  br label %91

91:                                               ; preds = %88
  br label %92

92:                                               ; preds = %91
  %93 = load i8, ptr %3, align 1, !range !6, !noundef !7
  %94 = trunc i8 %93 to i1
  br i1 %94, label %98, label %95

95:                                               ; preds = %92
  %96 = load i8, ptr %4, align 1, !range !6, !noundef !7
  %97 = trunc i8 %96 to i1
  br i1 %97, label %98, label %115

98:                                               ; preds = %95, %92
  call void @ReplicationSlotMarkDirty()
  call void @ReplicationSlotSave()
  br label %99

99:                                               ; preds = %98
  br i1 false, label %100, label %102

100:                                              ; preds = %99
  %101 = call zeroext i1 @errstart_cold(i32 noundef 14, ptr noundef null) #9
  br i1 %101, label %104, label %112

102:                                              ; preds = %99
  %103 = call zeroext i1 @errstart(i32 noundef 14, ptr noundef null)
  br i1 %103, label %104, label %112

104:                                              ; preds = %102, %100
  %105 = load i8, ptr %3, align 1, !range !6, !noundef !7
  %106 = trunc i8 %105 to i1
  %107 = zext i1 %106 to i32
  %108 = load i8, ptr %4, align 1, !range !6, !noundef !7
  %109 = trunc i8 %108 to i1
  %110 = zext i1 %109 to i32
  %111 = call i32 (ptr, ...) @errmsg_internal(ptr noundef @.str.25, i32 noundef %107, i32 noundef %110)
  call void @errfinish(ptr noundef @.str.1, i32 noundef 1874, ptr noundef @__func__.LogicalConfirmReceivedLocation)
  br label %112

112:                                              ; preds = %104, %102, %100
  br label %113

113:                                              ; preds = %112
  br label %114

114:                                              ; preds = %113
  br label %115

115:                                              ; preds = %114, %95
  %116 = load i8, ptr %3, align 1, !range !6, !noundef !7
  %117 = trunc i8 %116 to i1
  br i1 %117, label %118, label %140

118:                                              ; preds = %115
  %119 = load ptr, ptr @MyReplicationSlot, align 8
  %120 = getelementptr inbounds nuw %struct.ReplicationSlot, ptr %119, i32 0, i32 0
  %121 = call i32 @tas(ptr noundef %120)
  %122 = icmp ne i32 %121, 0
  br i1 %122, label %123, label %127

123:                                              ; preds = %118
  %124 = load ptr, ptr @MyReplicationSlot, align 8
  %125 = getelementptr inbounds nuw %struct.ReplicationSlot, ptr %124, i32 0, i32 0
  %126 = call i32 @s_lock(ptr noundef %125, ptr noundef @.str.1, i32 noundef 1885, ptr noundef @__func__.LogicalConfirmReceivedLocation)
  br label %128

127:                                              ; preds = %118
  br label %128

128:                                              ; preds = %127, %123
  %129 = load ptr, ptr @MyReplicationSlot, align 8
  %130 = getelementptr inbounds nuw %struct.ReplicationSlot, ptr %129, i32 0, i32 7
  %131 = getelementptr inbounds nuw %struct.ReplicationSlotPersistentData, ptr %130, i32 0, i32 4
  %132 = load i32, ptr %131, align 4
  %133 = load ptr, ptr @MyReplicationSlot, align 8
  %134 = getelementptr inbounds nuw %struct.ReplicationSlot, ptr %133, i32 0, i32 6
  store i32 %132, ptr %134, align 8
  br label %135

135:                                              ; preds = %128
  call void asm sideeffect "", "~{memory},~{dirflag},~{fpsr},~{flags}"() #10, !srcloc !14
  %136 = load ptr, ptr @MyReplicationSlot, align 8
  %137 = getelementptr inbounds nuw %struct.ReplicationSlot, ptr %136, i32 0, i32 0
  store i8 0, ptr %137, align 8
  br label %138

138:                                              ; preds = %135
  br label %139

139:                                              ; preds = %138
  call void @ReplicationSlotsComputeRequiredXmin(i1 noundef zeroext false)
  call void @ReplicationSlotsComputeRequiredLSN()
  br label %140

140:                                              ; preds = %139, %115
  call void @llvm.lifetime.end.p0(i64 1, ptr %4) #10
  call void @llvm.lifetime.end.p0(i64 1, ptr %3) #10
  br label %160

141:                                              ; preds = %9
  %142 = load ptr, ptr @MyReplicationSlot, align 8
  %143 = getelementptr inbounds nuw %struct.ReplicationSlot, ptr %142, i32 0, i32 0
  %144 = call i32 @tas(ptr noundef %143)
  %145 = icmp ne i32 %144, 0
  br i1 %145, label %146, label %150

146:                                              ; preds = %141
  %147 = load ptr, ptr @MyReplicationSlot, align 8
  %148 = getelementptr inbounds nuw %struct.ReplicationSlot, ptr %147, i32 0, i32 0
  %149 = call i32 @s_lock(ptr noundef %148, ptr noundef @.str.1, i32 noundef 1895, ptr noundef @__func__.LogicalConfirmReceivedLocation)
  br label %151

150:                                              ; preds = %141
  br label %151

151:                                              ; preds = %150, %146
  %152 = load i64, ptr %2, align 8
  %153 = load ptr, ptr @MyReplicationSlot, align 8
  %154 = getelementptr inbounds nuw %struct.ReplicationSlot, ptr %153, i32 0, i32 7
  %155 = getelementptr inbounds nuw %struct.ReplicationSlotPersistentData, ptr %154, i32 0, i32 7
  store i64 %152, ptr %155, align 8
  br label %156

156:                                              ; preds = %151
  call void asm sideeffect "", "~{memory},~{dirflag},~{fpsr},~{flags}"() #10, !srcloc !15
  %157 = load ptr, ptr @MyReplicationSlot, align 8
  %158 = getelementptr inbounds nuw %struct.ReplicationSlot, ptr %157, i32 0, i32 0
  store i8 0, ptr %158, align 8
  br label %159

159:                                              ; preds = %156
  br label %160

160:                                              ; preds = %159, %140
  ret void
}