; Function Attrs: nounwind uwtable
define dso_local void @LogicalConfirmReceivedLocation(i64 noundef %0) local_unnamed_addr #0 {
  %2 = load ptr, ptr @MyReplicationSlot, align 8
  %3 = getelementptr inbounds nuw i8, ptr %2, i64 240
  %4 = load i64, ptr %3, align 8
  %.not = icmp eq i64 %4, 0
  br i1 %.not, label %5, label %8

5:                                                ; preds = %1
  %6 = getelementptr inbounds nuw i8, ptr %2, i64 248
  %7 = load i64, ptr %6, align 8
  %.not13 = icmp eq i64 %7, 0
  br i1 %.not13, label %55, label %8

8:                                                ; preds = %5, %1
  %9 = tail call i8 asm sideeffect "\09lock\09\09\09\0A\09xchgb\09$0,$1\09\0A", "=q,=*m,0,*m,~{memory},~{cc},~{dirflag},~{fpsr},~{flags}"(ptr nonnull elementtype(i8) %2, i8 1, ptr nonnull elementtype(i8) %2) #10, !srcloc !4
  %.not15 = icmp eq i8 %9, 0
  br i1 %.not15, label %13, label %10

10:                                               ; preds = %8
  %11 = load ptr, ptr @MyReplicationSlot, align 8
  %12 = tail call i32 @s_lock(ptr noundef %11, ptr noundef nonnull @.str.1, i32 noundef 1829, ptr noundef nonnull @__func__.LogicalConfirmReceivedLocation) #10
  br label %13

13:                                               ; preds = %8, %10
  %14 = load ptr, ptr @MyReplicationSlot, align 8
  %15 = getelementptr inbounds nuw i8, ptr %14, i64 120
  store i64 %0, ptr %15, align 8
  %16 = getelementptr inbounds nuw i8, ptr %14, i64 240
  %17 = load i64, ptr %16, align 8
  %18 = add i64 %17, -1
  %or.cond.not = icmp ult i64 %18, %0
  br i1 %or.cond.not, label %19, label %26

19:                                               ; preds = %13
  %20 = getelementptr inbounds nuw i8, ptr %14, i64 236
  %21 = load i32, ptr %20, align 4
  %.not18 = icmp eq i32 %21, 0
  br i1 %.not18, label %26, label %22

22:                                               ; preds = %19
  %23 = getelementptr inbounds nuw i8, ptr %14, i64 100
  %24 = load i32, ptr %23, align 4
  %.not19 = icmp eq i32 %24, %21
  br i1 %.not19, label %26, label %25

25:                                               ; preds = %22
  store i32 %21, ptr %23, align 4
  store i32 0, ptr %20, align 4
  store i64 0, ptr %16, align 8
  br label %26

26:                                               ; preds = %19, %22, %25, %13
  %.09 = phi i1 [ true, %25 ], [ false, %22 ], [ false, %19 ], [ false, %13 ]
  %27 = getelementptr inbounds nuw i8, ptr %14, i64 248
  %28 = load i64, ptr %27, align 8
  %29 = add i64 %28, -1
  %or.cond23.not = icmp ult i64 %29, %0
  br i1 %or.cond23.not, label %30, label %34

30:                                               ; preds = %26
  %31 = getelementptr inbounds nuw i8, ptr %14, i64 256
  %32 = load i64, ptr %31, align 8
  %33 = getelementptr inbounds nuw i8, ptr %14, i64 104
  store i64 %32, ptr %33, align 8
  tail call void @llvm.memset.p0.i64(ptr noundef nonnull align 8 dereferenceable(16) %27, i8 0, i64 16, i1 false)
  br label %34

34:                                               ; preds = %26, %30
  tail call void asm sideeffect "", "~{memory},~{dirflag},~{fpsr},~{flags}"() #10, !srcloc !14
  %35 = load ptr, ptr @MyReplicationSlot, align 8
  store i8 0, ptr %35, align 8
  %brmerge = or i1 %.09, %or.cond23.not
  br i1 %brmerge, label %36, label %42

36:                                               ; preds = %34
  tail call void @ReplicationSlotMarkDirty() #10
  tail call void @ReplicationSlotSave() #10
  %37 = tail call zeroext i1 @errstart(i32 noundef 14, ptr noundef null) #10
  br i1 %37, label %38, label %42

38:                                               ; preds = %36
  %39 = zext i1 %.09 to i32
  %40 = zext i1 %or.cond23.not to i32
  %41 = tail call i32 (ptr, ...) @errmsg_internal(ptr noundef nonnull @.str.25, i32 noundef %39, i32 noundef %40) #10
  tail call void @errfinish(ptr noundef nonnull @.str.1, i32 noundef 1874, ptr noundef nonnull @__func__.LogicalConfirmReceivedLocation) #10
  br label %42

42:                                               ; preds = %34, %36, %38
  br i1 %.09, label %43, label %64

43:                                               ; preds = %42
  %44 = load ptr, ptr @MyReplicationSlot, align 8
  %45 = tail call i8 asm sideeffect "\09lock\09\09\09\0A\09xchgb\09$0,$1\09\0A", "=q,=*m,0,*m,~{memory},~{cc},~{dirflag},~{fpsr},~{flags}"(ptr elementtype(i8) %44, i8 1, ptr elementtype(i8) %44) #10, !srcloc !4
  %.not22 = icmp eq i8 %45, 0
  br i1 %.not22, label %49, label %46

46:                                               ; preds = %43
  %47 = load ptr, ptr @MyReplicationSlot, align 8
  %48 = tail call i32 @s_lock(ptr noundef %47, ptr noundef nonnull @.str.1, i32 noundef 1885, ptr noundef nonnull @__func__.LogicalConfirmReceivedLocation) #10
  br label %49

49:                                               ; preds = %43, %46
  %50 = load ptr, ptr @MyReplicationSlot, align 8
  %51 = getelementptr inbounds nuw i8, ptr %50, i64 100
  %52 = load i32, ptr %51, align 4
  %53 = getelementptr inbounds nuw i8, ptr %50, i64 16
  store i32 %52, ptr %53, align 8
  tail call void asm sideeffect "", "~{memory},~{dirflag},~{fpsr},~{flags}"() #10, !srcloc !15
  %54 = load ptr, ptr @MyReplicationSlot, align 8
  store i8 0, ptr %54, align 8
  tail call void @ReplicationSlotsComputeRequiredXmin(i1 noundef zeroext false) #10
  tail call void @ReplicationSlotsComputeRequiredLSN() #10
  br label %64

55:                                               ; preds = %5
  %56 = tail call i8 asm sideeffect "\09lock\09\09\09\0A\09xchgb\09$0,$1\09\0A", "=q,=*m,0,*m,~{memory},~{cc},~{dirflag},~{fpsr},~{flags}"(ptr nonnull elementtype(i8) %2, i8 1, ptr nonnull elementtype(i8) %2) #10, !srcloc !4
  %.not14 = icmp eq i8 %56, 0
  br i1 %.not14, label %60, label %57

57:                                               ; preds = %55
  %58 = load ptr, ptr @MyReplicationSlot, align 8
  %59 = tail call i32 @s_lock(ptr noundef %58, ptr noundef nonnull @.str.1, i32 noundef 1895, ptr noundef nonnull @__func__.LogicalConfirmReceivedLocation) #10
  br label %60

60:                                               ; preds = %55, %57
  %61 = load ptr, ptr @MyReplicationSlot, align 8
  %62 = getelementptr inbounds nuw i8, ptr %61, i64 120
  store i64 %0, ptr %62, align 8
  tail call void asm sideeffect "", "~{memory},~{dirflag},~{fpsr},~{flags}"() #10, !srcloc !16
  %63 = load ptr, ptr @MyReplicationSlot, align 8
  store i8 0, ptr %63, align 8
  br label %64

64:                                               ; preds = %42, %49, %60
  ret void
}